; Function Attrs: mustprogress uwtable
define noundef nonnull align 8 dereferenceable(24) ptr @_ZN8facebook5velox13DecodedVector18consecutiveIndicesEv() local_unnamed_addr #0 align 2 personality ptr @__gxx_personality_v0 {
entry:
  %0 = load atomic i8, ptr @_ZGVZN8facebook5velox13DecodedVector18consecutiveIndicesEvE18consecutiveIndices acquire, align 8
  %guard.uninitialized = icmp eq i8 %0, 0
  br i1 %guard.uninitialized, label %init.check, label %init.end, !prof !4

init.check:                                       ; preds = %entry
  %1 = tail call i32 @__cxa_guard_acquire(ptr nonnull @_ZGVZN8facebook5velox13DecodedVector18consecutiveIndicesEvE18consecutiveIndices) #18
  %tobool.not = icmp eq i32 %1, 0
  br i1 %tobool.not, label %init.end, label %init

init:                                             ; preds = %init.check
  invoke fastcc void @_ZN8facebook5velox12_GLOBAL__N_122makeConsecutiveIndicesEm()
          to label %invoke.cont unwind label %lpad

invoke.cont:                                      ; preds = %init
  %2 = tail call i32 @__cxa_atexit(ptr nonnull @_ZNSt6vectorIiSaIiEED2Ev, ptr nonnull @_ZZN8facebook5velox13DecodedVector18consecutiveIndicesEvE18consecutiveIndices, ptr nonnull @__dso_handle) #18
  tail call void @__cxa_guard_release(ptr nonnull @_ZGVZN8facebook5velox13DecodedVector18consecutiveIndicesEvE18consecutiveIndices) #18
  br label %init.end

init.end:                                         ; preds = %invoke.cont, %init.check, %entry
  ret ptr @_ZZN8facebook5velox13DecodedVector18consecutiveIndicesEvE18consecutiveIndices

lpad:                                             ; preds = %init
  %3 = landingpad { ptr, i32 }
          cleanup
  tail call void @__cxa_guard_abort(ptr nonnull @_ZGVZN8facebook5velox13DecodedVector18consecutiveIndicesEvE18consecutiveIndices) #18
  resume { ptr, i32 } %3
}